target datalayout = "e-m:e-p270:32:32-p271:32:32-p272:64:64-i64:64-i128:128-f80:128-n8:16:32:64-S128"
target triple = "x86_64-pc-linux-gnu"

%struct.strbuf = type { i64, i64, ptr }
%struct.json_writer = type { %struct.strbuf, %struct.strbuf, i8 }

; Function Attrs: inlinehint nounwind uwtable
define internal i64 @strbuf_avail(ptr noundef %0) #4 {
  %2 = alloca ptr, align 8
  store ptr %0, ptr %2, align 8, !tbaa !14
  %3 = load ptr, ptr %2, align 8, !tbaa !14
  %4 = getelementptr inbounds nuw %struct.strbuf, ptr %3, i32 0, i32 0
  %5 = load i64, ptr %4, align 8, !tbaa !32
  %6 = icmp ne i64 %5, 0
  br i1 %6, label %7, label %16

7:                                                ; preds = %1
  %8 = load ptr, ptr %2, align 8, !tbaa !14
  %9 = getelementptr inbounds nuw %struct.strbuf, ptr %8, i32 0, i32 0
  %10 = load i64, ptr %9, align 8, !tbaa !32
  %11 = load ptr, ptr %2, align 8, !tbaa !14
  %12 = getelementptr inbounds nuw %struct.strbuf, ptr %11, i32 0, i32 1
  %13 = load i64, ptr %12, align 8, !tbaa !33
  %14 = sub i64 %10, %13
  %15 = sub i64 %14, 1
  br label %17

16:                                               ; preds = %1
  br label %17

17:                                               ; preds = %16, %7
  %18 = phi i64 [ %15, %7 ], [ 0, %16 ]
  ret i64 %18
}

; Function Attrs: inlinehint nounwind uwtable
define internal void @strbuf_addch(ptr noundef %0, i32 noundef %1) #4 {
  %3 = alloca ptr, align 8
  %4 = alloca i32, align 4
  store ptr %0, ptr %3, align 8, !tbaa !14
  store i32 %1, ptr %4, align 4, !tbaa !9
  %5 = load ptr, ptr %3, align 8, !tbaa !14
  %6 = call i64 @strbuf_avail(ptr noundef %5)
  %7 = icmp ne i64 %6, 0
  br i1 %7, label %10, label %8

8:                                                ; preds = %2
  %9 = load ptr, ptr %3, align 8, !tbaa !14
  call void @strbuf_grow(ptr noundef %9, i64 noundef 1)
  br label %10

10:                                               ; preds = %8, %2
  %11 = load i32, ptr %4, align 4, !tbaa !9
  %12 = trunc i32 %11 to i8
  %13 = load ptr, ptr %3, align 8, !tbaa !14
  %14 = getelementptr inbounds nuw %struct.strbuf, ptr %13, i32 0, i32 2
  %15 = load ptr, ptr %14, align 8, !tbaa !22
  %16 = load ptr, ptr %3, align 8, !tbaa !14
  %17 = getelementptr inbounds nuw %struct.strbuf, ptr %16, i32 0, i32 1
  %18 = load i64, ptr %17, align 8, !tbaa !33
  %19 = add i64 %18, 1
  store i64 %19, ptr %17, align 8, !tbaa !33
  %20 = getelementptr inbounds nuw i8, ptr %15, i64 %18
  store i8 %12, ptr %20, align 1, !tbaa !11
  %21 = load ptr, ptr %3, align 8, !tbaa !14
  %22 = getelementptr inbounds nuw %struct.strbuf, ptr %21, i32 0, i32 2
  %23 = load ptr, ptr %22, align 8, !tbaa !22
  %24 = load ptr, ptr %3, align 8, !tbaa !14
  %25 = getelementptr inbounds nuw %struct.strbuf, ptr %24, i32 0, i32 1
  %26 = load i64, ptr %25, align 8, !tbaa !33
  %27 = getelementptr inbounds nuw i8, ptr %23, i64 %26
  store i8 0, ptr %27, align 1, !tbaa !11
  ret void
}

; Function Attrs: nounwind uwtable
define internal void @begin(ptr noundef %0, i8 noundef signext %1, i32 noundef %2) #0 {
  %4 = alloca ptr, align 8
  %5 = alloca i8, align 1
  %6 = alloca i32, align 4
  store ptr %0, ptr %4, align 8, !tbaa !4
  store i8 %1, ptr %5, align 1, !tbaa !11
  store i32 %2, ptr %6, align 4, !tbaa !9
  %7 = load i32, ptr %6, align 4, !tbaa !9
  %8 = load ptr, ptr %4, align 8, !tbaa !4
  %9 = getelementptr inbounds nuw %struct.json_writer, ptr %8, i32 0, i32 2
  %10 = trunc i32 %7 to i8
  %11 = load i8, ptr %9, align 8
  %12 = and i8 %10, 1
  %13 = shl i8 %12, 1
  %14 = and i8 %11, -3
  %15 = or i8 %14, %13
  store i8 %15, ptr %9, align 8
  %16 = load ptr, ptr %4, align 8, !tbaa !4
  %17 = getelementptr inbounds nuw %struct.json_writer, ptr %16, i32 0, i32 0
  %18 = load i8, ptr %5, align 1, !tbaa !11
  %19 = sext i8 %18 to i32
  call void @strbuf_addch(ptr noundef %17, i32 noundef %19)
  %20 = load ptr, ptr %4, align 8, !tbaa !4
  %21 = getelementptr inbounds nuw %struct.json_writer, ptr %20, i32 0, i32 1
  %22 = load i8, ptr %5, align 1, !tbaa !11
  %23 = sext i8 %22 to i32
  call void @strbuf_addch(ptr noundef %21, i32 noundef %23)
  %24 = load ptr, ptr %4, align 8, !tbaa !4
  %25 = getelementptr inbounds nuw %struct.json_writer, ptr %24, i32 0, i32 2
  %26 = load i8, ptr %25, align 8
  %27 = and i8 %26, -2
  %28 = or i8 %27, 0
  store i8 %28, ptr %25, align 8
  ret void
}

; Function Attrs: nounwind uwtable
define dso_local void @jw_array_begin(ptr noundef %0, i32 noundef %1) #0 {
  %3 = alloca ptr, align 8
  %4 = alloca i32, align 4
  store ptr %0, ptr %3, align 8, !tbaa !4
  store i32 %1, ptr %4, align 4, !tbaa !9
  %5 = load ptr, ptr %3, align 8, !tbaa !4
  %6 = load i32, ptr %4, align 4, !tbaa !9
  call void @begin(ptr noundef %5, i8 noundef signext 91, i32 noundef %6)
  ret void
}