; Function Attrs: nounwind uwtable
define dso_local void @jw_array_begin(ptr noundef %0, i32 noundef %1) local_unnamed_addr #3 {
  %3 = getelementptr inbounds nuw i8, ptr %0, i64 48
  %4 = trunc i32 %1 to i8
  %5 = load i8, ptr %3, align 8
  %6 = shl i8 %4, 1
  %7 = and i8 %6, 2
  %8 = and i8 %5, -3
  %9 = or disjoint i8 %8, %7
  store i8 %9, ptr %3, align 8
  %10 = load i64, ptr %0, align 8, !tbaa !4
  %.not.i.i.i = icmp eq i64 %10, 0
  br i1 %.not.i.i.i, label %strbuf_avail.exit.thread.i.i, label %strbuf_avail.exit.i.i

strbuf_avail.exit.i.i:                            ; preds = %2
  %11 = getelementptr inbounds nuw i8, ptr %0, i64 8
  %12 = load i64, ptr %11, align 8, !tbaa !11
  %.neg.i.i = add i64 %12, 1
  %.not.i.i = icmp eq i64 %10, %.neg.i.i
  br i1 %.not.i.i, label %strbuf_avail.exit.thread.i.i, label %strbuf_addch.exit.i

strbuf_avail.exit.thread.i.i:                     ; preds = %strbuf_avail.exit.i.i, %2
  tail call void @strbuf_grow(ptr noundef nonnull %0, i64 noundef 1) #8
  %.phi.trans.insert.i.i = getelementptr inbounds nuw i8, ptr %0, i64 8
  %.pre.i.i = load i64, ptr %.phi.trans.insert.i.i, align 8, !tbaa !11
  %.pre7.i.i = add i64 %.pre.i.i, 1
  br label %strbuf_addch.exit.i

strbuf_addch.exit.i:                              ; preds = %strbuf_avail.exit.thread.i.i, %strbuf_avail.exit.i.i
  %.pre-phi.i.i = phi i64 [ %.pre7.i.i, %strbuf_avail.exit.thread.i.i ], [ %.neg.i.i, %strbuf_avail.exit.i.i ]
  %13 = phi i64 [ %.pre.i.i, %strbuf_avail.exit.thread.i.i ], [ %12, %strbuf_avail.exit.i.i ]
  %14 = getelementptr inbounds nuw i8, ptr %0, i64 16
  %15 = load ptr, ptr %14, align 8, !tbaa !12
  %16 = getelementptr inbounds nuw i8, ptr %0, i64 8
  store i64 %.pre-phi.i.i, ptr %16, align 8, !tbaa !11
  %17 = getelementptr inbounds nuw i8, ptr %15, i64 %13
  store i8 91, ptr %17, align 1, !tbaa !13
  %18 = load ptr, ptr %14, align 8, !tbaa !12
  %19 = load i64, ptr %16, align 8, !tbaa !11
  %20 = getelementptr inbounds nuw i8, ptr %18, i64 %19
  store i8 0, ptr %20, align 1, !tbaa !13
  %21 = getelementptr inbounds nuw i8, ptr %0, i64 24
  %22 = load i64, ptr %21, align 8, !tbaa !4
  %.not.i.i6.i = icmp eq i64 %22, 0
  br i1 %.not.i.i6.i, label %strbuf_avail.exit.thread.i11.i, label %strbuf_avail.exit.i7.i

strbuf_avail.exit.i7.i:                           ; preds = %strbuf_addch.exit.i
  %23 = getelementptr inbounds nuw i8, ptr %0, i64 32
  %24 = load i64, ptr %23, align 8, !tbaa !11
  %.neg.i8.i = add i64 %24, 1
  %.not.i9.i = icmp eq i64 %22, %.neg.i8.i
  br i1 %.not.i9.i, label %strbuf_avail.exit.thread.i11.i, label %begin.exit

strbuf_avail.exit.thread.i11.i:                   ; preds = %strbuf_avail.exit.i7.i, %strbuf_addch.exit.i
  tail call void @strbuf_grow(ptr noundef nonnull %21, i64 noundef 1) #8
  %.phi.trans.insert.i12.i = getelementptr inbounds nuw i8, ptr %0, i64 32
  %.pre.i13.i = load i64, ptr %.phi.trans.insert.i12.i, align 8, !tbaa !11
  %.pre7.i14.i = add i64 %.pre.i13.i, 1
  br label %begin.exit

begin.exit:                                       ; preds = %strbuf_avail.exit.i7.i, %strbuf_avail.exit.thread.i11.i
  %.pre-phi.i10.i = phi i64 [ %.pre7.i14.i, %strbuf_avail.exit.thread.i11.i ], [ %.neg.i8.i, %strbuf_avail.exit.i7.i ]
  %25 = phi i64 [ %.pre.i13.i, %strbuf_avail.exit.thread.i11.i ], [ %24, %strbuf_avail.exit.i7.i ]
  %26 = getelementptr inbounds nuw i8, ptr %0, i64 40
  %27 = load ptr, ptr %26, align 8, !tbaa !12
  %28 = getelementptr inbounds nuw i8, ptr %0, i64 32
  store i64 %.pre-phi.i10.i, ptr %28, align 8, !tbaa !11
  %29 = getelementptr inbounds nuw i8, ptr %27, i64 %25
  store i8 91, ptr %29, align 1, !tbaa !13
  %30 = load ptr, ptr %26, align 8, !tbaa !12
  %31 = load i64, ptr %28, align 8, !tbaa !11
  %32 = getelementptr inbounds nuw i8, ptr %30, i64 %31
  store i8 0, ptr %32, align 1, !tbaa !13
  %33 = load i8, ptr %3, align 8
  %34 = and i8 %33, -2
  store i8 %34, ptr %3, align 8
  ret void
}